(dp0
S'crumpled'
p1
I3
sS'skeleton'
p2
I7
sS'gladioli'
p3
I9
sS'dance'
p4
I187
sS'ceramic'
p5
I370
sS'all'
p6
I271
sS'yellow'
p7
I4
sS'horseback'
p8
I188
sS'four'
p9
I5
sS'known'
p10
I398
sS'philosopher'
p11
I663
sS'mansion'
p12
I6
sS'meditation'
p13
I19
sS'seller'
p14
I515
sS'milk'
p15
I192
sS'carpet'
p16
I372
sS'looking'
p17
I251
sS'ballet'
p18
I193
sS'anticipation'
p19
I152
sS'graves'
p20
I537
sS'begonias'
p21
I8
sS'young'
p22
I539
sS'to'
p23
I373
sS'th'
p24
I37
sS'under'
p25
I10
sS'weather'
p26
I667
sS'merchant'
p27
I11
sS'town'
p28
I400
sS'woman'
p29
I374
sS'garden'
p30
I541
sS'far'
p31
I375
sS'dessert'
p32
I262
sS'void'
p33
I12
sS'hunging'
p34
I376
sS'vase'
p35
I13
sS'hitch'
p36
I632
sS'chapel'
p37
I14
sS'leads'
p38
I637
sS'school'
p39
I15
sS'daisies'
p40
I520
sS'clouds'
p41
I194
sS'asparagus'
p42
I425
sS'knight'
p43
I543
sS'large'
p44
I378
sS'revolted'
p45
I219
sS'round'
p46
I421
sS'upper'
p47
I626
sS'work'
p48
I42
sS'ten'
p49
I80
sS'procession'
p50
I545
sS'elegant'
p51
I16
sS'second'
p52
I17
sS'street'
p53
I18
sS'design'
p54
I380
sS'picked'
p55
I546
sS'port'
p56
I198
sS'blue'
p57
I20
sS'swampy'
p58
I381
sS'sun'
p59
I103
sS'performs'
p60
I595
sS'nee'
p61
I21
sS'torero'
p62
I382
sS'sur'
p63
I383
sS'toll'
p64
I22
sS'new'
p65
I23
sS'bird'
p66
I549
sS'<END>'
p67
I2
sS'funeral'
p68
I199
sS'herd'
p69
I25
sS'water'
p70
I200
sS'protection'
p71
I26
sS'studio'
p72
I27
sS'trunk'
p73
I385
sS'path'
p74
I28
sS'along'
p75
I249
sS'sieve'
p76
I201
sS'appears'
p77
I202
sS'arena'
p78
I387
sS'publisher'
p79
I388
sS'great'
p80
I490
sS'daughter'
p81
I130
sS'windowsill'
p82
I538
sS'ahead'
p83
I389
sS'study'
p84
I29
sS'leaving'
p85
I494
sS'smoke'
p86
I30
sS'delphinium'
p87
I390
sS'aka'
p88
I31
sS'studies'
p89
I605
sS'bof'
p90
I203
sS'family'
p91
I391
sS'barker'
p92
I392
sS'seashore'
p93
I508
sS'tomato'
p94
I573
sS'composer'
p95
I554
sS'herring'
p96
I394
sS'market'
p97
I204
sS'sky'
p98
I652
sS'from'
p99
I555
sS'estate'
p100
I44
sS'remains'
p101
I557
sS'watering'
p102
I34
sS'arms'
p103
I35
sS'pears'
p104
I396
sS'by'
p105
I518
sS'depicted'
p106
I558
sS'wood'
p107
I282
sS'prey'
p108
I206
sS'spike'
p109
I36
sS'von'
p110
I492
sS'horses'
p111
I397
sS'entrance'
p112
I207
sS'porch'
p113
I559
sS'dressing'
p114
I38
sS'glass'
p115
I39
sS'deciduous'
p116
I40
sS'train'
p117
I560
sS'olive'
p118
I208
sS'harvest'
p119
I561
sS'riverbank'
p120
I399
sS'women'
p121
I563
sS'me'
p122
I41
sS'hour'
p123
I335
sS'ride'
p124
I544
sS'des'
p125
I195
sS'candlestick'
p126
I296
sS'cat'
p127
I210
sS'dei'
p128
I402
sS'can'
p129
I211
sS'ferry'
p130
I212
sS'parkway'
p131
I552
sS'roundtable'
p132
I213
sS'overpass'
p133
I214
sS'melons'
p134
I43
sS'stream'
p135
I215
sS'brown'
p136
I403
sS'locks'
p137
I216
sS'critic'
p138
I217
sS'pond'
p139
I404
sS'pink'
p140
I168
sS'hyacinths'
p141
I565
sS'winter'
p142
I218
sS'forest'
p143
I566
sS'boats'
p144
I45
sS'beach'
p145
I238
sS'goat'
p146
I240
sS'stand'
p147
I342
sS'profile'
p148
I567
sS'lamb'
p149
I568
sS'plant'
p150
I405
sS'bouquet'
p151
I600
sS'lad'
p152
I46
sS'after'
p153
I47
sS'southern'
p154
I220
sS'masks'
p155
I571
sS'shores'
p156
I254
sS'trees'
p157
I471
sS'such'
p158
I221
sS'da'
p159
I572
sS'arch'
p160
I48
sS'man'
p161
I514
sS'stronghold'
p162
I49
sS'branches'
p163
I222
sS'gobelin'
p164
I223
sS'vegetables'
p165
I672
sS'childhood'
p166
I256
sS'shore'
p167
I409
sS'reaper'
p168
I224
sS'green'
p169
I51
sS'basket'
p170
I225
sS'egg'
p171
I412
sS'order'
p172
I275
sS'fregate'
p173
I53
sS'zef'
p174
I280
sS'deck'
p175
I54
sS'camellia'
p176
I136
sS'over'
p177
I55
sS'years'
p178
I227
sS'paper'
p179
I415
sS'through'
p180
I416
sS'terrace'
p181
I228
sS'agricultural'
p182
I630
sS'cold'
p183
I473
sS'still'
p184
I229
sS'nets'
p185
I542
sS'shako'
p186
I230
sS'figure'
p187
I556
sS'before'
p188
I56
sS'<START>'
p189
I1
sS'le'
p190
I576
sS'group'
p191
I231
sS'la'
p192
I577
sS'ships'
p193
I578
sS'vicinity'
p194
I232
sS'resort'
p195
I418
sS'window'
p196
I233
sS'farmer'
p197
I234
sS'orange'
p198
I579
sS'ropes'
p199
I666
sS'evening'
p200
I422
sS'junction'
p201
I580
sS'fragment'
p202
I58
sS'dam'
p203
I583
sS'oranges'
p204
I584
sS'walls'
p205
I423
sS'half'
p206
I236
sS'not'
p207
I237
sS'day'
p208
I586
sS'bank'
p209
I59
sS'bread'
p210
I60
sS'bonnet'
p211
I684
sS'rocky'
p212
I327
sS'fixed'
p213
I627
sS'l'
p214
I61
sS'rocks'
p215
I62
sS'peasant'
p216
I241
sS'fisherman'
p217
I242
sS'embankment'
p218
I63
sS'rock'
p219
I243
sS'went'
p220
I64
sS'tray'
p221
I588
sS'trailer'
p222
I426
sS'sketches'
p223
I427
sS'en'
p224
I244
sS'nave'
p225
I65
sS'lilac'
p226
I589
sS'generation'
p227
I428
sS'house'
p228
I593
sS'fish'
p229
I429
sS'buildings'
p230
I569
sS'catching'
p231
I245
sS'bouquets'
p232
I430
sS'year'
p233
I246
sS'et'
p234
I247
sS'dawn'
p235
I68
sS'collector'
p236
I360
sS'sandy'
p237
I591
sS'out'
p238
I592
sS'flower'
p239
I431
sS'driving'
p240
I365
sS'degli'
p241
I522
sS'since'
p242
I432
sS'factory'
p243
I250
sS'rd'
p244
I84
sS'countryside'
p245
I406
sS'hill'
p246
I433
sS'navigating'
p247
I594
sS'nudes'
p248
I252
sS'red'
p249
I596
sS'passer'
p250
I440
sS'serpent'
p251
I434
sS'roofs'
p252
I435
sS'porcelain'
p253
I384
sS'eternal'
p254
I71
sS'horse'
p255
I441
sS'cart'
p256
I253
sS'houses'
p257
I436
sS'pumpkins'
p258
I73
sS'grapes'
p259
I75
sS'van'
p260
I419
sS'river'
p261
I474
sS'dancer'
p262
I484
sS'place'
p263
I255
sS'unknown'
p264
I602
sS'cucumber'
p265
I498
sS'orchids'
p266
I289
sS'think'
p267
I50
sS'pines'
p268
I57
sS'xa'
p269
I257
sS'scene'
p270
I601
sS'walkers'
p271
I78
sS'feet'
p272
I438
sS'flycatcher'
p273
I439
sS'impossible'
p274
I67
sS'tomorrow'
p275
I258
sS'<UNK>'
p276
I0
sS'sheep'
p277
I259
sS'city'
p278
I70
sS'masted'
p279
I79
sS'boulevard'
p280
I525
sS'heads'
p281
I442
sS'fence'
p282
I379
sS'district'
p283
I260
sS'their'
p284
I603
sS'bloom'
p285
I407
sS'top'
p286
I81
sS'historian'
p287
I437
sS'boating'
p288
I82
sS'storm'
p289
I444
sS'white'
p290
I83
sS'store'
p291
I445
sS'a'
p292
I408
sS'shepherd'
p293
I564
sS'hum'
p294
I94
sS'hotel'
p295
I446
sS'park'
p296
I447
sS'negro'
p297
I606
sS'hut'
p298
I261
sS'chair'
p299
I191
sS'treasures'
p300
I448
sS'demographer'
p301
I334
sS'flowers'
p302
I263
sS'representing'
p303
I264
sS'king'
p304
I467
sS'kind'
p305
I449
sS'b'
p306
I450
sS'tree'
p307
I85
sS'seated'
p308
I86
sS'future'
p309
I265
sS'apples'
p310
I266
sS'iron'
p311
I480
sS'fruits'
p312
I267
sS'and'
p313
I268
sS'bridge'
p314
I88
sS'sad'
p315
I269
sS'tide'
p316
I610
sS'gale'
p317
I452
sS'seen'
p318
I89
sS'forced'
p319
I90
sS'afraid'
p320
I612
sS'realm'
p321
I91
sS'cottages'
p322
I92
sS'self'
p323
I455
sS'steamboat'
p324
I93
sS'belfry'
p325
I496
sS'couch'
p326
I33
sS'also'
p327
I456
sS'schoolmaster'
p328
I613
sS'steppe'
p329
I457
sS'which'
p330
I614
sS'pilgrimage'
p331
I95
sS'province'
p332
I458
sS'towards'
p333
I459
sS'track'
p334
I273
sS'monastery'
p335
I460
sS'flute'
p336
I461
sS'mimosa'
p337
I617
sS'banks'
p338
I411
sS'glow'
p339
I96
sS'singer'
p340
I97
sS'viburnum'
p341
I462
sS'grove'
p342
I98
sS'camp'
p343
I526
sS'cover'
p344
I464
sS'dog'
p345
I99
sS'wing'
p346
I52
sS'deacon'
p347
I100
sS'swamp'
p348
I101
sS'points'
p349
I102
sS'sunset'
p350
I276
sS'wounded'
p351
I618
sS'pomegranates'
p352
I465
sS'shop'
p353
I277
sS'convoy'
p354
I278
sS'summer'
p355
I316
sS'stove'
p356
I620
sS'peaches'
p357
I279
sS'battle'
p358
I190
sS'corner'
p359
I197
sS'chicken'
p360
I621
sS'economist'
p361
I443
sS'stormy'
p362
I281
sS'peasants'
p363
I105
sS'front'
p364
I585
sS'writer'
p365
I466
sS'folded'
p366
I106
sS'bust'
p367
I107
sS'bush'
p368
I226
sS'going'
p369
I205
sS'black'
p370
I116
sS'lodge'
p371
I108
sS'circle'
p372
I469
sS'rice'
p373
I346
sS'plums'
p374
I209
sS'pumpkin'
p375
I283
sS'plate'
p376
I109
sS'his'
p377
I470
sS'fabulous'
p378
I87
sS'watching'
p379
I624
sS'de'
p380
I110
sS'leisure'
p381
I111
sS'coast'
p382
I112
sS'encampments'
p383
I590
sS'bei'
p384
I607
sS'watermelon'
p385
I113
sS'rest'
p386
I472
sS'acrobats'
p387
I451
sS'du'
p388
I114
sS'crabs'
p389
I625
sS'artist'
p390
I239
sS'floods'
p391
I285
sS'morning'
p392
I286
sS'book'
p393
I682
sS'priest'
p394
I287
sS'squadron'
p395
I115
sS'approaching'
p396
I163
sS'set'
p397
I475
sS'art'
p398
I476
sS'fair'
p399
I118
sS'seas'
p400
I290
sS'national'
p401
I629
sS'lemonade'
p402
I119
sS'melancholy'
p403
I550
sS'are'
p404
I477
sS'sea'
p405
I478
sS'portrait'
p406
I479
sS'cabaret'
p407
I519
sS'farmers'
p408
I274
sS'its'
p409
I417
sS'behind'
p410
I292
sS'ink'
p411
I677
sS'between'
p412
I284
sS'bunch'
p413
I575
sS'tent'
p414
I288
sS'we'
p415
I121
sS'bed'
p416
I608
sS'cauliflower'
p417
I631
sS'solitary'
p418
I468
sS'picking'
p419
I122
sS'prelude'
p420
I481
sS'pilgrims'
p421
I633
sS'kitchen'
p422
I123
sS'piece'
p423
I676
sS'last'
p424
I482
sS'country'
p425
I124
sS'region'
p426
I294
sS'against'
p427
I647
sS's'
p428
I295
sS'objects'
p429
I483
sS'figures'
p430
I635
sS'mani'
p431
I297
sS'among'
p432
I298
sS'stretcher'
p433
I299
sS'fields'
p434
I300
sS'cancer'
p435
I320
sS'drunk'
p436
I609
sS'armchair'
p437
I301
sS'pot'
p438
I302
sS'wreaths'
p439
I331
sS'flutist'
p440
I485
sS'village'
p441
I486
sS'table'
p442
I636
sS'flowering'
p443
I548
sS'boat'
p444
I337
sS'lighthouse'
p445
I126
sS'steamships'
p446
I386
sS'raise'
p447
I487
sS'hunters'
p448
I638
sS'political'
p449
I488
sS'pa'
p450
I454
sS'peppers'
p451
I489
sS'curtain'
p452
I353
sS'borders'
p453
I304
sS'tug'
p454
I293
sS'idol'
p455
I127
sS'life'
p456
I128
sS'squash'
p457
I305
sS'child'
p458
I129
sS'an'
p459
I640
sS'spirit'
p460
I306
sS'politician'
p461
I104
sS'ski'
p462
I656
sS'straight'
p463
I491
sS'chalk'
p464
I641
sS'near'
p465
I131
sS'gills'
p466
I562
sS'leaning'
p467
I24
sS'leaves'
p468
I597
sS'della'
p469
I132
sS'les'
p470
I551
sS'is'
p471
I133
sS'figurines'
p472
I307
sS'middle'
p473
I401
sS'wildflowers'
p474
I493
sS'in'
p475
I134
sS'violin'
p476
I135
sS'inspector'
p477
I642
sS'capture'
p478
I643
sS'pas'
p479
I308
sS'doctor'
p480
I309
sS'dahlias'
p481
I410
sS'bowl'
p482
I310
sS'doorway'
p483
I634
sS'who'
p484
I616
sS'trip'
p485
I311
sS'beside'
p486
I137
sS'surrounds'
p487
I582
sS'party'
p488
I644
sS'strawberries'
p489
I674
sS'isle'
p490
I312
sS'bearded'
p491
I138
sS'raid'
p492
I139
sS'peaks'
p493
I140
sS'juniper'
p494
I141
sS'paths'
p495
I420
sS'pomegranate'
p496
I497
sS'barges'
p497
I313
sS'yesterday'
p498
I72
sS'rain'
p499
I74
sS'fruit'
p500
I314
sS'moving'
p501
I76
sS'two'
p502
I395
sS'statue'
p503
I315
sS'birch'
p504
I77
sS'composition'
p505
I495
sS'buttle'
p506
I499
sS'off'
p507
I646
sS'wanderer'
p508
I142
sS'peacocks'
p509
I143
sS'stillness'
p510
I144
sS'edge'
p511
I500
sS'mother'
p512
I145
sS'the'
p513
I146
sS'left'
p514
I147
sS'gates'
p515
I66
sS'being'
p516
I317
sS'oak'
p517
I680
sS'actress'
p518
I393
sS'jar'
p519
I623
sS'foot'
p520
I424
sS'maternity'
p521
I318
sS'fishing'
p522
I648
sS'human'
p523
I117
sS'praying'
p524
I120
sS'magnolias'
p525
I649
sS'railroad'
p526
I325
sS'gems'
p527
I501
sS'death'
p528
I319
sS'roses'
p529
I650
sS'rose'
p530
I321
sS'bell'
p531
I651
sS'seems'
p532
I322
sS'lake'
p533
I169
sS'bench'
p534
I653
sS'shout'
p535
I148
sS'cherries'
p536
I502
sS'exhibition'
p537
I503
sS'homeland'
p538
I504
sS'stable'
p539
I540
sS'riverside'
p540
I655
sS'playing'
p541
I413
sS'hat'
p542
I149
sS'unloading'
p543
I505
sS'build'
p544
I645
sS'dark'
p545
I323
sS'traffic'
p546
I324
sS'background'
p547
I150
sS'press'
p548
I657
sS'shadow'
p549
I151
sS'lady'
p550
I326
sS'd'
p551
I507
sS'clan'
p552
I615
sS'burdock'
p553
I506
sS'stranger'
p554
I328
sS'nude'
p555
I69
sS'seaside'
p556
I153
sS'miracle'
p557
I512
sS'lightning'
p558
I330
sS'festivities'
p559
I154
sS'lanterns'
p560
I125
sS'night'
p561
I155
sS'tower'
p562
I332
sS'collective'
p563
I329
sS'sketch'
p564
I165
sS'hunt'
p565
I272
sS'prairie'
p566
I196
sS'doll'
p567
I333
sS'spring'
p568
I510
sS'church'
p569
I659
sS'excerpt'
p570
I157
sS'dead'
p571
I158
sS'hair'
p572
I660
sS'palm'
p573
I511
sS'mirror'
p574
I377
sS'candle'
p575
I513
sS'leaf'
p576
I662
sS'for'
p577
I159
sS'purple'
p578
I185
sS'ice'
p579
I189
sS'mercenaries'
p580
I336
sS'cradle'
p581
I598
sS'landscape'
p582
I32
sS'epic'
p583
I516
sS'knife'
p584
I338
sS'hastens'
p585
I160
sS'eating'
p586
I517
sS'view'
p587
I628
sS'broken'
p588
I339
sS'bamboo'
p589
I509
sS'on'
p590
I340
sS'necklace'
p591
I574
sS'of'
p592
I341
sS'magazine'
p593
I161
sS'camels'
p594
I664
sS'futurist'
p595
I665
sS'afternoon'
p596
I162
sS'act'
p597
I343
sS'or'
p598
I344
sS'road'
p599
I345
sS'raised'
p600
I164
sS'pineapples'
p601
I181
sS'into'
p602
I463
sS'birches'
p603
I235
sS'son'
p604
I166
sS'beings'
p605
I167
sS'harness'
p606
I347
sS'brush'
p607
I668
sS'female'
p608
I669
sS'old'
p609
I156
sS'leeks'
p610
I521
sS'aground'
p611
I547
sS'ridge'
p612
I180
sS'beneath'
p613
I587
sS'her'
p614
I348
sS'veil'
p615
I686
sS'museum'
p616
I599
sS'feat'
p617
I622
sS'desert'
p618
I530
sS'cats'
p619
I604
sS'low'
p620
I350
sS'way'
p621
I170
sS'herdsmen'
p622
I171
sS'valley'
p623
I351
sS'fork'
p624
I172
sS'mountains'
p625
I523
sS'head'
p626
I173
sS'himself'
p627
I524
sS'farm'
p628
I570
sS'jug'
p629
I611
sS'form'
p630
I174
sS'crown'
p631
I175
sS'pitcher'
p632
I352
sS'volume'
p633
I673
sS'poet'
p634
I639
sS'land'
p635
I532
sS'elderly'
p636
I176
sS'sailboats'
p637
I177
sS'editing'
p638
I675
sS'with'
p639
I354
sS'fort'
p640
I178
sS'lilies'
p641
I179
sS'skull'
p642
I270
sS'bucket'
p643
I355
sS'crystal'
p644
I291
sS'mountain'
p645
I453
sS'grass'
p646
I356
sS'dish'
p647
I371
sS'general'
p648
I357
sS'as'
p649
I358
sS'at'
p650
I359
sS'home'
p651
I661
sS'ship'
p652
I182
sS'education'
p653
I678
sS'girl'
p654
I248
sS'balcony'
p655
I679
sS'lemon'
p656
I527
sS'nd'
p657
I183
sS'detail'
p658
I681
sS'field'
p659
I361
sS'other'
p660
I654
sS'branch'
p661
I683
sS'department'
p662
I528
sS'you'
p663
I658
sS'star'
p664
I685
sS'princely'
p665
I529
sS'pear'
p666
I362
sS'cove'
p667
I363
sS'padme'
p668
I688
sS'marigolds'
p669
I553
sS'peak'
p670
I364
sS'cornflowers'
p671
I670
sS'friends'
p672
I671
sS'sides'
p673
I349
sS'cliff'
p674
I687
sS'lane'
p675
I531
sS'radishes'
p676
I414
sS'spades'
p677
I184
sS'wife'
p678
I366
sS'painting'
p679
I619
sS'age'
p680
I533
sS'foundry'
p681
I534
sS'moonlight'
p682
I367
sS'u'
p683
I368
sS'almanac'
p684
I186
sS'tulips'
p685
I581
sS'spouts'
p686
I303
sS'berries'
p687
I535
sS'buffalo'
p688
I536
sS'unset'
p689
I369
sS'ttel'
p690
I689
s.