(dp0
S'crumpled'
p1
I3
sS'pheasant'
p2
I7
sS'skeleton'
p3
I8
sS'gladioli'
p4
I10
sS'dance'
p5
I201
sS'ceramic'
p6
I392
sS'all'
p7
I289
sS'yellow'
p8
I4
sS'hitch'
p9
I15
sS'four'
p10
I5
sS'known'
p11
I425
sS'farms'
p12
I403
sS'philosopher'
p13
I715
sS'mansion'
p14
I6
sS'chair'
p15
I205
sS'seller'
p16
I554
sS'milk'
p17
I206
sS'carpet'
p18
I395
sS'looking'
p19
I266
sS'ballet'
p20
I207
sS'anticipation'
p21
I167
sS'graves'
p22
I578
sS'begonias'
p23
I9
sS'young'
p24
I580
sS'to'
p25
I397
sS'cradle'
p26
I645
sS'th'
p27
I40
sS'under'
p28
I11
sS'weather'
p29
I720
sS'merchant'
p30
I12
sS'town'
p31
I427
sS'woman'
p32
I399
sS'performs'
p33
I641
sS'far'
p34
I400
sS'dessert'
p35
I278
sS'void'
p36
I13
sS'hunging'
p37
I401
sS'vase'
p38
I14
sS'horseback'
p39
I202
sS'chapel'
p40
I16
sS'leads'
p41
I686
sS'school'
p42
I17
sS'daisies'
p43
I558
sS'clouds'
p44
I208
sS'asparagus'
p45
I453
sS'knight'
p46
I583
sS'large'
p47
I404
sS'revolted'
p48
I234
sS'round'
p49
I449
sS'triumph'
p50
I570
sS'upper'
p51
I675
sS'work'
p52
I45
sS'ten'
p53
I86
sS'procession'
p54
I585
sS'elegant'
p55
I18
sS'second'
p56
I19
sS'street'
p57
I20
sS'design'
p58
I406
sS'picked'
p59
I586
sS'port'
p60
I212
sS'blue'
p61
I21
sS'swampy'
p62
I407
sS'sun'
p63
I111
sS'nee'
p64
I22
sS'torero'
p65
I408
sS'sur'
p66
I409
sS'toll'
p67
I23
sS'new'
p68
I24
sS'bird'
p69
I589
sS'<END>'
p70
I2
sS'funeral'
p71
I213
sS'herd'
p72
I26
sS'water'
p73
I214
sS'protection'
p74
I27
sS'studio'
p75
I28
sS'trunk'
p76
I411
sS'path'
p77
I29
sS'along'
p78
I264
sS'sieve'
p79
I215
sS'appears'
p80
I216
sS'arena'
p81
I413
sS'boy'
p82
I217
sS'environs'
p83
I218
sS'daughter'
p84
I139
sS'hunting'
p85
I396
sS'ahead'
p86
I415
sS'leaves'
p87
I31
sS'leaving'
p88
I532
sS'smoke'
p89
I32
sS'delphinium'
p90
I153
sS'ancient'
p91
I649
sS'aka'
p92
I33
sS'studies'
p93
I654
sS'bof'
p94
I219
sS'family'
p95
I417
sS'barker'
p96
I418
sS'sliced'
p97
I34
sS'seashore'
p98
I548
sS'tomato'
p99
I617
sS'composer'
p100
I595
sS'herring'
p101
I420
sS'market'
p102
I220
sS'sky'
p103
I704
sS'from'
p104
I596
sS'estate'
p105
I48
sS'remains'
p106
I598
sS'watering'
p107
I37
sS'arms'
p108
I38
sS'pears'
p109
I422
sS'by'
p110
I557
sS'depicted'
p111
I599
sS'wood'
p112
I300
sS'prey'
p113
I222
sS'spike'
p114
I39
sS'von'
p115
I530
sS'horses'
p116
I423
sS'entrance'
p117
I223
sS'door'
p118
I424
sS'porch'
p119
I600
sS'dressing'
p120
I398
sS'glass'
p121
I41
sS'deciduous'
p122
I42
sS'train'
p123
I601
sS'lemons'
p124
I200
sS'olive'
p125
I224
sS'harvest'
p126
I602
sS'riverbank'
p127
I426
sS'women'
p128
I604
sS'me'
p129
I43
sS'room'
p130
I44
sS'hour'
p131
I356
sS'ride'
p132
I584
sS'des'
p133
I209
sS'candlestick'
p134
I314
sS'cat'
p135
I225
sS'dei'
p136
I429
sS'del'
p137
I430
sS'can'
p138
I226
sS'ferry'
p139
I592
sS'parkway'
p140
I593
sS'roundtable'
p141
I227
sS'unknown'
p142
I650
sS'overpass'
p143
I228
sS'melons'
p144
I47
sS'stream'
p145
I229
sS'brown'
p146
I431
sS'locks'
p147
I230
sS'critic'
p148
I231
sS'spruce'
p149
I608
sS'pond'
p150
I433
sS'garden'
p151
I682
sS'pink'
p152
I183
sS'hyacinths'
p153
I609
sS'winter'
p154
I232
sS'di'
p155
I118
sS'forest'
p156
I610
sS'boats'
p157
I49
sS'beach'
p158
I253
sS'goat'
p159
I255
sS'stand'
p160
I363
sS'profile'
p161
I611
sS'lamb'
p162
I612
sS'plant'
p163
I434
sS'bouquet'
p164
I647
sS'lad'
p165
I50
sS'after'
p166
I51
sS'southern'
p167
I235
sS'masks'
p168
I615
sS'shores'
p169
I269
sS'trees'
p170
I508
sS'floral'
p171
I236
sS'such'
p172
I237
sS'da'
p173
I616
sS'arch'
p174
I52
sS'man'
p175
I553
sS'stronghold'
p176
I53
sS'branches'
p177
I238
sS'gobelin'
p178
I239
sS'light'
p179
I618
sS'vegetables'
p180
I727
sS'childhood'
p181
I271
sS'tale'
p182
I660
sS'shore'
p183
I438
sS'reaper'
p184
I240
sS'green'
p185
I55
sS'basket'
p186
I241
sS'egg'
p187
I292
sS'order'
p188
I293
sS'wind'
p189
I57
sS'fregate'
p190
I58
sS'zef'
p191
I298
sS'deck'
p192
I59
sS'camellia'
p193
I147
sS'over'
p194
I60
sS'years'
p195
I243
sS'paper'
p196
I443
sS'through'
p197
I444
sS'terrace'
p198
I244
sS'agricultural'
p199
I679
sS'cold'
p200
I509
sS'still'
p201
I245
sS'nets'
p202
I582
sS'shako'
p203
I246
sS'figure'
p204
I597
sS'before'
p205
I61
sS'<START>'
p206
I1
sS'le'
p207
I621
sS'group'
p208
I73
sS'la'
p209
I622
sS'ships'
p210
I623
sS'vicinity'
p211
I247
sS'writing'
p212
I322
sS'resort'
p213
I446
sS'window'
p214
I248
sS'farmer'
p215
I249
sS'orange'
p216
I624
sS'roses'
p217
I702
sS'coffee'
p218
I63
sS'evening'
p219
I450
sS'junction'
p220
I625
sS'fragment'
p221
I64
sS'dam'
p222
I694
sS'oranges'
p223
I628
sS'walls'
p224
I451
sS'half'
p225
I251
sS'not'
p226
I252
sS'day'
p227
I630
sS'bank'
p228
I65
sS'bread'
p229
I66
sS'bonnet'
p230
I740
sS'rocky'
p231
I644
sS'tram'
p232
I631
sS'l'
p233
I67
sS'rocks'
p234
I68
sS'peasant'
p235
I256
sS'fisherman'
p236
I257
sS'embankment'
p237
I69
sS'rock'
p238
I258
sS'went'
p239
I70
sS'tray'
p240
I633
sS'trailer'
p241
I454
sS'sketches'
p242
I455
sS'en'
p243
I259
sS'nave'
p244
I71
sS'logs'
p245
I72
sS'lilac'
p246
I634
sS'generation'
p247
I456
sS'house'
p248
I639
sS'fish'
p249
I457
sS'buildings'
p250
I613
sS'catching'
p251
I260
sS'bouquets'
p252
I458
sS'year'
p253
I261
sS'et'
p254
I262
sS'dawn'
p255
I76
sS'bay'
p256
I124
sS'collector'
p257
I382
sS'sandy'
p258
I636
sS'out'
p259
I637
sS'flower'
p260
I459
sS'driving'
p261
I388
sS'tulips'
p262
I626
sS'since'
p263
I460
sS'factory'
p264
I265
sS'rd'
p265
I90
sS'countryside'
p266
I435
sS'hill'
p267
I461
sS'navigating'
p268
I640
sS'nudes'
p269
I267
sS'red'
p270
I642
sS'passer'
p271
I473
sS'serpent'
p272
I462
sS'roofs'
p273
I463
sS'porcelain'
p274
I464
sS'eternal'
p275
I78
sS'horse'
p276
I474
sS'cart'
p277
I268
sS'houses'
p278
I465
sS'pumpkins'
p279
I80
sS'grapes'
p280
I82
sS'degli'
p281
I560
sS'ash'
p282
I466
sS'squadron'
p283
I643
sS'dancer'
p284
I521
sS'place'
p285
I270
sS'leading'
p286
I476
sS'cucumber'
p287
I536
sS'castle'
p288
I468
sS'orchids'
p289
I307
sS'think'
p290
I54
sS'ski'
p291
I708
sS'pines'
p292
I62
sS'xa'
p293
I272
sS'scene'
p294
I648
sS'walkers'
p295
I83
sS'feet'
p296
I470
sS'flycatcher'
p297
I471
sS'impossible'
p298
I75
sS'cossack'
p299
I84
sS'tomorrow'
p300
I273
sS'<UNK>'
p301
I0
sS'sheep'
p302
I472
sS'city'
p303
I274
sS'masted'
p304
I85
sS'boulevard'
p305
I275
sS'heads'
p306
I475
sS'fence'
p307
I405
sS'district'
p308
I276
sS'their'
p309
I651
sS'bloom'
p310
I436
sS'top'
p311
I87
sS'historian'
p312
I469
sS'windowsill'
p313
I579
sS'boating'
p314
I88
sS'storm'
p315
I478
sS'white'
p316
I89
sS'store'
p317
I479
sS'beard'
p318
I653
sS'a'
p319
I437
sS'shepherd'
p320
I607
sS'hum'
p321
I102
sS'hotel'
p322
I480
sS'park'
p323
I481
sS'negro'
p324
I655
sS'hut'
p325
I277
sS'treasures'
p326
I482
sS'demographer'
p327
I354
sS'flowers'
p328
I279
sS'representing'
p329
I280
sS'royal'
p330
I161
sS'king'
p331
I504
sS'kind'
p332
I483
sS'b'
p333
I484
sS'sailing'
p334
I281
sS'tree'
p335
I91
sS'seated'
p336
I92
sS'future'
p337
I282
sS'apples'
p338
I283
sS'iron'
p339
I517
sS'fruits'
p340
I284
sS'toward'
p341
I486
sS'and'
p342
I285
sS'bridge'
p343
I94
sS'donkey'
p344
I95
sS'sad'
p345
I287
sS'tide'
p346
I659
sS'gale'
p347
I487
sS'seen'
p348
I97
sS'forced'
p349
I98
sS'afraid'
p350
I661
sS'realm'
p351
I99
sS'cottages'
p352
I100
sS'self'
p353
I490
sS'steamboat'
p354
I101
sS'belfry'
p355
I534
sS'couch'
p356
I36
sS'dining'
p357
I160
sS'schoolmaster'
p358
I662
sS'square'
p359
I492
sS'steppe'
p360
I493
sS'which'
p361
I663
sS'pilgrimage'
p362
I103
sS'rider'
p363
I546
sS'province'
p364
I494
sS'towards'
p365
I495
sS'track'
p366
I291
sS'monastery'
p367
I496
sS'flute'
p368
I497
sS'mimosa'
p369
I667
sS'banks'
p370
I440
sS'letter'
p371
I104
sS'glow'
p372
I105
sS'singer'
p373
I106
sS'viburnum'
p374
I498
sS'grove'
p375
I107
sS'camp'
p376
I563
sS'cover'
p377
I500
sS'dog'
p378
I108
sS'wing'
p379
I56
sS'deacon'
p380
I566
sS'swamp'
p381
I109
sS'points'
p382
I110
sS'sunset'
p383
I294
sS'wounded'
p384
I668
sS'pomegranates'
p385
I162
sS'shop'
p386
I295
sS'convoy'
p387
I296
sS'summer'
p388
I335
sS'stove'
p389
I670
sS'peaches'
p390
I297
sS'battle'
p391
I204
sS'corner'
p392
I211
sS'chicken'
p393
I671
sS'economist'
p394
I477
sS'impact'
p395
I502
sS'stormy'
p396
I299
sS'peasants'
p397
I113
sS'front'
p398
I629
sS'writer'
p399
I503
sS'folded'
p400
I114
sS'bust'
p401
I115
sS'bush'
p402
I242
sS'going'
p403
I221
sS'black'
p404
I125
sS'lodge'
p405
I116
sS'circle'
p406
I506
sS'rice'
p407
I367
sS'plums'
p408
I605
sS'pumpkin'
p409
I301
sS'plate'
p410
I117
sS'his'
p411
I507
sS'fabulous'
p412
I93
sS'watching'
p413
I233
sS'de'
p414
I119
sS'leisure'
p415
I120
sS'coast'
p416
I121
sS'encampments'
p417
I635
sS'bei'
p418
I656
sS'watermelon'
p419
I122
sS'rest'
p420
I700
sS'acrobats'
p421
I485
sS'du'
p422
I123
sS'crabs'
p423
I674
sS'girl'
p424
I263
sS'artist'
p425
I254
sS'floods'
p426
I303
sS'morning'
p427
I304
sS'bag'
p428
I638
sS'priest'
p429
I305
sS'river'
p430
I510
sS'approaching'
p431
I178
sS'set'
p432
I511
sS'art'
p433
I512
sS'fair'
p434
I127
sS'seas'
p435
I308
sS'national'
p436
I678
sS'lemonade'
p437
I128
sS'melancholy'
p438
I590
sS'are'
p439
I514
sS'sea'
p440
I515
sS'portrait'
p441
I516
sS'cabaret'
p442
I606
sS'farmers'
p443
I309
sS'its'
p444
I445
sS'behind'
p445
I310
sS'ink'
p446
I732
sS'between'
p447
I302
sS'bunch'
p448
I620
sS'tent'
p449
I306
sS'we'
p450
I130
sS'bed'
p451
I657
sS'cauliflower'
p452
I680
sS'solitary'
p453
I505
sS'picking'
p454
I131
sS'prelude'
p455
I687
sS'pilgrims'
p456
I681
sS'kitchen'
p457
I132
sS'piece'
p458
I731
sS'last'
p459
I518
sS'country'
p460
I133
sS'region'
p461
I312
sS'against'
p462
I698
sS's'
p463
I313
sS'objects'
p464
I519
sS'figures'
p465
I684
sS'mani'
p466
I315
sS'among'
p467
I316
sS'stretcher'
p468
I317
sS'fields'
p469
I318
sS'cancer'
p470
I339
sS'drunk'
p471
I658
sS'armchair'
p472
I319
sS'pot'
p473
I320
sS'lanterns'
p474
I134
sS'flutist'
p475
I522
sS'village'
p476
I523
sS'table'
p477
I685
sS'flowering'
p478
I588
sS'boat'
p479
I358
sS'turkey'
p480
I323
sS'lighthouse'
p481
I135
sS'steamships'
p482
I412
sS'raise'
p483
I525
sS'hunters'
p484
I688
sS'political'
p485
I526
sS'pa'
p486
I489
sS'peppers'
p487
I527
sS'curtain'
p488
I374
sS'borders'
p489
I324
sS'tug'
p490
I311
sS'idol'
p491
I136
sS'life'
p492
I137
sS'publisher'
p493
I414
sS'squash'
p494
I325
sS'child'
p495
I138
sS'bunny'
p496
I286
sS'an'
p497
I690
sS'spirit'
p498
I326
sS'politician'
p499
I112
sS'hat'
p500
I164
sS'straight'
p501
I529
sS'chalk'
p502
I691
sS'near'
p503
I141
sS'gills'
p504
I603
sS'leaning'
p505
I25
sS'wild'
p506
I410
sS'study'
p507
I142
sS'della'
p508
I143
sS'ropes'
p509
I719
sS'les'
p510
I591
sS'is'
p511
I144
sS'figurines'
p512
I327
sS'middle'
p513
I428
sS'wildflowers'
p514
I531
sS'in'
p515
I145
sS'violin'
p516
I146
sS'inspector'
p517
I692
sS'capture'
p518
I693
sS'pas'
p519
I328
sS'doctor'
p520
I329
sS'dahlias'
p521
I439
sS'bowl'
p522
I330
sS'doorway'
p523
I683
sS'who'
p524
I666
sS'beside'
p525
I148
sS'surrounds'
p526
I627
sS'party'
p527
I695
sS'strawberries'
p528
I729
sS'isle'
p529
I332
sS'bearded'
p530
I149
sS'raid'
p531
I150
sS'peaks'
p532
I151
sS'juniper'
p533
I152
sS'paths'
p534
I448
sS'pomegranate'
p535
I535
sS'published'
p536
I416
sS'barges'
p537
I333
sS'yesterday'
p538
I79
sS'rain'
p539
I81
sS'fruit'
p540
I467
sS'moving'
p541
I353
sS'two'
p542
I421
sS'statue'
p543
I334
sS'birch'
p544
I537
sS'composition'
p545
I533
sS'buttle'
p546
I538
sS'off'
p547
I697
sS'wanderer'
p548
I154
sS'peacocks'
p549
I155
sS'stillness'
p550
I156
sS'edge'
p551
I539
sS'mother'
p552
I157
sS'the'
p553
I158
sS'left'
p554
I159
sS'gates'
p555
I74
sS'bananas'
p556
I501
sS'being'
p557
I336
sS'oak'
p558
I735
sS'actress'
p559
I419
sS'jar'
p560
I673
sS'foot'
p561
I452
sS'maternity'
p562
I337
sS'fishing'
p563
I699
sS'human'
p564
I126
sS'praying'
p565
I129
sS'magnolias'
p566
I701
sS'railroad'
p567
I344
sS'gems'
p568
I540
sS'death'
p569
I338
sS'also'
p570
I491
sS'rose'
p571
I340
sS'bell'
p572
I703
sS'seems'
p573
I341
sS'lake'
p574
I520
sS'bench'
p575
I705
sS'shout'
p576
I163
sS'cherries'
p577
I541
sS'exhibition'
p578
I542
sS'homeland'
p579
I543
sS'stable'
p580
I581
sS'riverside'
p581
I707
sS'playing'
p582
I441
sS'lilacs'
p583
I140
sS'unloading'
p584
I544
sS'build'
p585
I696
sS'book'
p586
I737
sS'dark'
p587
I342
sS'traffic'
p588
I343
sS'background'
p589
I165
sS'press'
p590
I709
sS'shadow'
p591
I166
sS'lady'
p592
I345
sS'd'
p593
I545
sS'clan'
p594
I665
sS'burdock'
p595
I346
sS'stranger'
p596
I347
sS'nude'
p597
I77
sS'seaside'
p598
I168
sS'miracle'
p599
I551
sS'lightning'
p600
I349
sS'festivities'
p601
I169
sS'wreaths'
p602
I350
sS'night'
p603
I170
sS'tower'
p604
I351
sS'collective'
p605
I348
sS'sketch'
p606
I180
sS'hunt'
p607
I290
sS'prairie'
p608
I210
sS'pickles'
p609
I565
sS'doll'
p610
I352
sS'spring'
p611
I185
sS'church'
p612
I711
sS'excerpt'
p613
I172
sS'dead'
p614
I173
sS'hair'
p615
I712
sS'meditation'
p616
I394
sS'palm'
p617
I550
sS'mirror'
p618
I402
sS'candle'
p619
I552
sS'stagecoach'
p620
I355
sS'leaf'
p621
I714
sS'for'
p622
I174
sS'purple'
p623
I199
sS'ice'
p624
I203
sS'mercenaries'
p625
I357
sS'continue'
p626
I547
sS'discretion'
p627
I716
sS'landscape'
p628
I35
sS'epic'
p629
I555
sS'knife'
p630
I359
sS'hastens'
p631
I175
sS'eating'
p632
I556
sS'view'
p633
I677
sS'wisteria'
p634
I524
sS'broken'
p635
I360
sS'great'
p636
I528
sS'keeper'
p637
I96
sS'bamboo'
p638
I549
sS'on'
p639
I361
sS'necklace'
p640
I619
sS'of'
p641
I362
sS'magazine'
p642
I176
sS'camels'
p643
I717
sS'futurist'
p644
I718
sS'afternoon'
p645
I177
sS'act'
p646
I364
sS'or'
p647
I365
sS'road'
p648
I366
sS'raised'
p649
I179
sS'pineapples'
p650
I195
sS'into'
p651
I499
sS'birches'
p652
I250
sS'son'
p653
I181
sS'beings'
p654
I182
sS'harness'
p655
I368
sS'brush'
p656
I721
sS'female'
p657
I722
sS'roads'
p658
I724
sS'old'
p659
I171
sS'leeks'
p660
I559
sS'aground'
p661
I587
sS'van'
p662
I447
sS'beneath'
p663
I632
sS'her'
p664
I369
sS'veil'
p665
I742
sS'museum'
p666
I646
sS'fixed'
p667
I676
sS'feat'
p668
I672
sS'desert'
p669
I571
sS'cats'
p670
I652
sS'low'
p671
I371
sS'way'
p672
I184
sS'herdsmen'
p673
I186
sS'valley'
p674
I372
sS'fork'
p675
I187
sS'mountains'
p676
I561
sS'head'
p677
I188
sS'himself'
p678
I562
sS'farm'
p679
I614
sS'jug'
p680
I432
sS'form'
p681
I189
sS'crown'
p682
I190
sS'fascinator'
p683
I664
sS'pitcher'
p684
I373
sS'volume'
p685
I728
sS'poet'
p686
I689
sS'land'
p687
I573
sS'elderly'
p688
I191
sS'sailboats'
p689
I192
sS'editing'
p690
I730
sS'with'
p691
I376
sS'dump'
p692
I513
sS'fort'
p693
I193
sS'lilies'
p694
I194
sS'skull'
p695
I288
sS'ridge'
p696
I725
sS'bucket'
p697
I377
sS'crystal'
p698
I30
sS'mountain'
p699
I488
sS'grass'
p700
I378
sS'geese'
p701
I564
sS'dish'
p702
I393
sS'general'
p703
I379
sS'as'
p704
I380
sS'at'
p705
I381
sS'home'
p706
I713
sS'ship'
p707
I196
sS'education'
p708
I733
sS'trip'
p709
I331
sS'balcony'
p710
I734
sS'lemon'
p711
I567
sS'floor'
p712
I197
sS'rains'
p713
I46
sS'nd'
p714
I198
sS'detail'
p715
I736
sS'field'
p716
I383
sS'other'
p717
I706
sS'branch'
p718
I738
sS'department'
p719
I568
sS'you'
p720
I710
sS'star'
p721
I741
sS'princely'
p722
I569
sS'pear'
p723
I385
sS'cove'
p724
I386
sS'padme'
p725
I744
sS'marigolds'
p726
I594
sS'peak'
p727
I387
sS'cornflowers'
p728
I723
sS'friends'
p729
I726
sS'sides'
p730
I370
sS'cliff'
p731
I743
sS'lane'
p732
I572
sS'radishes'
p733
I442
sS'spades'
p734
I375
sS'wife'
p735
I389
sS'painting'
p736
I669
sS'age'
p737
I574
sS'foundry'
p738
I575
sS'moonlight'
p739
I390
sS'u'
p740
I739
sS'almanac'
p741
I384
sS'spouts'
p742
I321
sS'berries'
p743
I576
sS'buffalo'
p744
I577
sS'unset'
p745
I391
sS'ttel'
p746
I745
s.